Certificate:
    Data:
        Version: 3 (0x2)
        Serial Number: 2 (0x2)
    Signature Algorithm: sha1WithRSAEncryption
        Issuer: C=RO, ST=NA, L=Bucharest, O=UPB, OU=ETTI, CN=FSLEMBD/name=CA/emailAddress=balaban.valeriu90@gmail.com
        Validity
            Not Before: Sep  4 09:46:53 2014 GMT
            Not After : Sep  1 09:46:53 2024 GMT
        Subject: C=RO, ST=NA, L=Bucharest, O=UPB, OU=ETTI, CN=wandboard/name=wandboard/emailAddress=balaban.valeriu90@gmail.com
        Subject Public Key Info:
            Public Key Algorithm: rsaEncryption
                Public-Key: (1024 bit)
                Modulus:
                    00:c4:83:3a:e3:2d:17:73:91:b4:ae:93:e4:87:7e:
                    aa:0a:fa:f6:c8:3d:36:3e:e2:f0:7b:3a:ba:6f:c7:
                    c2:03:c3:74:bf:bc:8d:a5:4a:7b:7c:30:98:fa:cc:
                    11:7c:be:4a:aa:a1:67:e4:f9:6b:a0:df:03:8a:38:
                    3c:75:33:4d:1c:66:bc:49:73:79:43:d3:dc:34:5c:
                    6a:57:ea:6c:27:73:23:6f:eb:ee:fb:9b:d6:b0:73:
                    cb:25:fe:f3:23:7e:e2:33:cc:e6:b8:f0:50:33:49:
                    61:0d:c8:81:14:c2:69:97:ee:59:b1:6d:38:bd:cd:
                    d7:bd:aa:b0:60:4b:4c:3f:21
                Exponent: 65537 (0x10001)
        X509v3 extensions:
            X509v3 Basic Constraints: 
                CA:FALSE
            Netscape Comment: 
                Easy-RSA Generated Certificate
            X509v3 Subject Key Identifier: 
                9B:19:95:F9:07:FB:BA:27:E4:68:9F:45:51:97:E8:1C:0A:B5:74:34
            X509v3 Authority Key Identifier: 
                keyid:E7:E7:99:AF:B6:6F:F3:05:69:32:53:D5:C3:3A:8C:1D:19:BC:3A:15
                DirName:/C=RO/ST=NA/L=Bucharest/O=UPB/OU=ETTI/CN=FSLEMBD/name=CA/emailAddress=balaban.valeriu90@gmail.com
                serial:80:54:47:03:19:09:52:6F

            X509v3 Extended Key Usage: 
                TLS Web Client Authentication
            X509v3 Key Usage: 
                Digital Signature
    Signature Algorithm: sha1WithRSAEncryption
         36:26:f4:24:95:36:43:b2:77:ee:f1:d2:3d:1e:80:c3:97:91:
         ec:a9:9a:a9:5f:13:9d:ea:a8:8d:73:3d:2f:a6:8b:90:5d:5a:
         21:81:8c:1e:aa:5e:d4:8d:d1:54:1a:d8:41:27:2d:6e:7c:f3:
         50:3c:1a:47:53:93:24:dd:c1:d6:40:97:80:7c:db:cf:e0:95:
         55:5d:bb:9d:a5:f5:29:7d:a5:b2:6a:cc:a6:e0:b3:dc:9a:94:
         5b:cc:4d:17:7c:df:39:a8:cb:f7:13:75:eb:70:9d:71:c4:24:
         7c:d9:0b:8a:35:76:92:fb:2c:c7:ad:8e:3c:e7:98:0d:5a:e7:
         ad:85
-----BEGIN CERTIFICATE-----
MIID/DCCA2WgAwIBAgIBAjANBgkqhkiG9w0BAQUFADCBljELMAkGA1UEBhMCUk8x
CzAJBgNVBAgTAk5BMRIwEAYDVQQHEwlCdWNoYXJlc3QxDDAKBgNVBAoTA1VQQjEN
MAsGA1UECxMERVRUSTEQMA4GA1UEAxMHRlNMRU1CRDELMAkGA1UEKRMCQ0ExKjAo
BgkqhkiG9w0BCQEWG2JhbGFiYW4udmFsZXJpdTkwQGdtYWlsLmNvbTAeFw0xNDA5
MDQwOTQ2NTNaFw0yNDA5MDEwOTQ2NTNaMIGfMQswCQYDVQQGEwJSTzELMAkGA1UE
CBMCTkExEjAQBgNVBAcTCUJ1Y2hhcmVzdDEMMAoGA1UEChMDVVBCMQ0wCwYDVQQL
EwRFVFRJMRIwEAYDVQQDEwl3YW5kYm9hcmQxEjAQBgNVBCkTCXdhbmRib2FyZDEq
MCgGCSqGSIb3DQEJARYbYmFsYWJhbi52YWxlcml1OTBAZ21haWwuY29tMIGfMA0G
CSqGSIb3DQEBAQUAA4GNADCBiQKBgQDEgzrjLRdzkbSuk+SHfqoK+vbIPTY+4vB7
Orpvx8IDw3S/vI2lSnt8MJj6zBF8vkqqoWfk+Wug3wOKODx1M00cZrxJc3lD09w0
XGpX6mwncyNv6+77m9awc8sl/vMjfuIzzOa48FAzSWENyIEUwmmX7lmxbTi9zde9
qrBgS0w/IQIDAQABo4IBTTCCAUkwCQYDVR0TBAIwADAtBglghkgBhvhCAQ0EIBYe
RWFzeS1SU0EgR2VuZXJhdGVkIENlcnRpZmljYXRlMB0GA1UdDgQWBBSbGZX5B/u6
J+Ron0VRl+gcCrV0NDCBywYDVR0jBIHDMIHAgBTn55mvtm/zBWkyU9XDOowdGbw6
FaGBnKSBmTCBljELMAkGA1UEBhMCUk8xCzAJBgNVBAgTAk5BMRIwEAYDVQQHEwlC
dWNoYXJlc3QxDDAKBgNVBAoTA1VQQjENMAsGA1UECxMERVRUSTEQMA4GA1UEAxMH
RlNMRU1CRDELMAkGA1UEKRMCQ0ExKjAoBgkqhkiG9w0BCQEWG2JhbGFiYW4udmFs
ZXJpdTkwQGdtYWlsLmNvbYIJAIBURwMZCVJvMBMGA1UdJQQMMAoGCCsGAQUFBwMC
MAsGA1UdDwQEAwIHgDANBgkqhkiG9w0BAQUFAAOBgQA2JvQklTZDsnfu8dI9HoDD
l5HsqZqpXxOd6qiNcz0vpouQXVohgYweql7UjdFUGthBJy1ufPNQPBpHU5Mk3cHW
QJeAfNvP4JVVXbudpfUpfaWyasym4LPcmpRbzE0XfN85qMv3E3XrcJ1xxCR82QuK
NXaS+yzHrY4855gNWuethQ==
-----END CERTIFICATE-----
